
./astar.riscv:     file format elf64-littleriscv


Disassembly of section .text.init:

0000000080000000 <__ehdr_start>:
    80000000:	4081                	c.li	x1,0
    80000002:	4101                	c.li	x2,0
    80000004:	4181                	c.li	x3,0
    80000006:	4201                	c.li	x4,0
    80000008:	4281                	c.li	x5,0
    8000000a:	4301                	c.li	x6,0
    8000000c:	4381                	c.li	x7,0
    8000000e:	4401                	c.li	x8,0
    80000010:	4481                	c.li	x9,0
    80000012:	4501                	c.li	x10,0
    80000014:	4581                	c.li	x11,0
    80000016:	4601                	c.li	x12,0
    80000018:	4681                	c.li	x13,0
    8000001a:	4701                	c.li	x14,0
    8000001c:	4781                	c.li	x15,0
    8000001e:	4801                	c.li	x16,0
    80000020:	4881                	c.li	x17,0
    80000022:	4901                	c.li	x18,0
    80000024:	4981                	c.li	x19,0
    80000026:	4a01                	c.li	x20,0
    80000028:	4a81                	c.li	x21,0
    8000002a:	4b01                	c.li	x22,0
    8000002c:	4b81                	c.li	x23,0
    8000002e:	4c01                	c.li	x24,0
    80000030:	4c81                	c.li	x25,0
    80000032:	4d01                	c.li	x26,0
    80000034:	4d81                	c.li	x27,0
    80000036:	4e01                	c.li	x28,0
    80000038:	4e81                	c.li	x29,0
    8000003a:	4f01                	c.li	x30,0
    8000003c:	4f81                	c.li	x31,0
    8000003e:	62f9                	c.lui	x5,0x1e
    80000040:	3002a073          	csrrs	x0,mstatus,x5
    80000044:	4285                	c.li	x5,1
    80000046:	02fe                	c.slli	x5,0x1f
    80000048:	0002d863          	bge	x5,x0,80000058 <__ehdr_start+0x58>
    8000004c:	4505                	c.li	x10,1
    8000004e:	00001297          	auipc	x5,0x1
    80000052:	faa2a923          	sw	x10,-78(x5) # 80001000 <tohost>
    80000056:	bfdd                	c.j	8000004c <__ehdr_start+0x4c>
    80000058:	00000297          	auipc	x5,0x0
    8000005c:	09028293          	addi	x5,x5,144 # 800000e8 <__ehdr_start+0xe8>
    80000060:	30529073          	csrrw	x0,mtvec,x5
    80000064:	00301073          	csrrw	x0,fcsr,x0
    80000068:	f0000053          	fmv.w.x	f0,x0
    8000006c:	f00000d3          	fmv.w.x	f1,x0
    80000070:	f0000153          	fmv.w.x	f2,x0
    80000074:	f00001d3          	fmv.w.x	f3,x0
    80000078:	f0000253          	fmv.w.x	f4,x0
    8000007c:	f00002d3          	fmv.w.x	f5,x0
    80000080:	f0000353          	fmv.w.x	f6,x0
    80000084:	f00003d3          	fmv.w.x	f7,x0
    80000088:	f0000453          	fmv.w.x	f8,x0
    8000008c:	f00004d3          	fmv.w.x	f9,x0
    80000090:	f0000553          	fmv.w.x	f10,x0
    80000094:	f00005d3          	fmv.w.x	f11,x0
    80000098:	f0000653          	fmv.w.x	f12,x0
    8000009c:	f00006d3          	fmv.w.x	f13,x0
    800000a0:	f0000753          	fmv.w.x	f14,x0
    800000a4:	f00007d3          	fmv.w.x	f15,x0
    800000a8:	f0000853          	fmv.w.x	f16,x0
    800000ac:	f00008d3          	fmv.w.x	f17,x0
    800000b0:	f0000953          	fmv.w.x	f18,x0
    800000b4:	f00009d3          	fmv.w.x	f19,x0
    800000b8:	f0000a53          	fmv.w.x	f20,x0
    800000bc:	f0000ad3          	fmv.w.x	f21,x0
    800000c0:	f0000b53          	fmv.w.x	f22,x0
    800000c4:	f0000bd3          	fmv.w.x	f23,x0
    800000c8:	f0000c53          	fmv.w.x	f24,x0
    800000cc:	f0000cd3          	fmv.w.x	f25,x0
    800000d0:	f0000d53          	fmv.w.x	f26,x0
    800000d4:	f0000dd3          	fmv.w.x	f27,x0
    800000d8:	f0000e53          	fmv.w.x	f28,x0
    800000dc:	f0000ed3          	fmv.w.x	f29,x0
    800000e0:	f0000f53          	fmv.w.x	f30,x0
    800000e4:	f0000fd3          	fmv.w.x	f31,x0
    800000e8:	00000297          	auipc	x5,0x0
    800000ec:	03828293          	addi	x5,x5,56 # 80000120 <trap_entry>
    800000f0:	30529073          	csrrw	x0,mtvec,x5
    800000f4:	00005197          	auipc	x3,0x5
    800000f8:	2d418193          	addi	x3,x3,724 # 800053c8 <__global_pointer$>
    800000fc:	87718213          	addi	x4,x3,-1929 # 80004c3f <_end+0x3f>
    80000100:	fc027213          	andi	x4,x4,-64
    80000104:	f1402573          	csrrs	x10,mhartid,x0
    80000108:	4585                	c.li	x11,1
    8000010a:	00b57063          	bgeu	x10,x11,8000010a <__ehdr_start+0x10a>
    8000010e:	00150113          	addi	x2,x10,1
    80000112:	0146                	c.slli	x2,0x11
    80000114:	9112                	c.add	x2,x4
    80000116:	01151613          	slli	x12,x10,0x11
    8000011a:	9232                	c.add	x4,x12
    8000011c:	60c0406f          	jal	x0,80004728 <_init>

0000000080000120 <trap_entry>:
    80000120:	716d                	c.addi16sp	x2,-272
    80000122:	e406                	c.sdsp	x1,8(x2)
    80000124:	e80a                	c.sdsp	x2,16(x2)
    80000126:	ec0e                	c.sdsp	x3,24(x2)
    80000128:	f012                	c.sdsp	x4,32(x2)
    8000012a:	f416                	c.sdsp	x5,40(x2)
    8000012c:	f81a                	c.sdsp	x6,48(x2)
    8000012e:	fc1e                	c.sdsp	x7,56(x2)
    80000130:	e0a2                	c.sdsp	x8,64(x2)
    80000132:	e4a6                	c.sdsp	x9,72(x2)
    80000134:	e8aa                	c.sdsp	x10,80(x2)
    80000136:	ecae                	c.sdsp	x11,88(x2)
    80000138:	f0b2                	c.sdsp	x12,96(x2)
    8000013a:	f4b6                	c.sdsp	x13,104(x2)
    8000013c:	f8ba                	c.sdsp	x14,112(x2)
    8000013e:	fcbe                	c.sdsp	x15,120(x2)
    80000140:	e142                	c.sdsp	x16,128(x2)
    80000142:	e546                	c.sdsp	x17,136(x2)
    80000144:	e94a                	c.sdsp	x18,144(x2)
    80000146:	ed4e                	c.sdsp	x19,152(x2)
    80000148:	f152                	c.sdsp	x20,160(x2)
    8000014a:	f556                	c.sdsp	x21,168(x2)
    8000014c:	f95a                	c.sdsp	x22,176(x2)
    8000014e:	fd5e                	c.sdsp	x23,184(x2)
    80000150:	e1e2                	c.sdsp	x24,192(x2)
    80000152:	e5e6                	c.sdsp	x25,200(x2)
    80000154:	e9ea                	c.sdsp	x26,208(x2)
    80000156:	edee                	c.sdsp	x27,216(x2)
    80000158:	f1f2                	c.sdsp	x28,224(x2)
    8000015a:	f5f6                	c.sdsp	x29,232(x2)
    8000015c:	f9fa                	c.sdsp	x30,240(x2)
    8000015e:	fdfe                	c.sdsp	x31,248(x2)
    80000160:	34202573          	csrrs	x10,mcause,x0
    80000164:	341025f3          	csrrs	x11,mepc,x0
    80000168:	860a                	c.mv	x12,x2
    8000016a:	23e040ef          	jal	x1,800043a8 <handle_trap>
    8000016e:	34151073          	csrrw	x0,mepc,x10
    80000172:	6289                	c.lui	x5,0x2
    80000174:	8002829b          	addiw	x5,x5,-2048 # 1800 <buflen.0+0x17c0>
    80000178:	3002a073          	csrrs	x0,mstatus,x5
    8000017c:	60a2                	c.ldsp	x1,8(x2)
    8000017e:	6142                	c.ldsp	x2,16(x2)
    80000180:	61e2                	c.ldsp	x3,24(x2)
    80000182:	7202                	c.ldsp	x4,32(x2)
    80000184:	72a2                	c.ldsp	x5,40(x2)
    80000186:	7342                	c.ldsp	x6,48(x2)
    80000188:	73e2                	c.ldsp	x7,56(x2)
    8000018a:	6406                	c.ldsp	x8,64(x2)
    8000018c:	64a6                	c.ldsp	x9,72(x2)
    8000018e:	6546                	c.ldsp	x10,80(x2)
    80000190:	65e6                	c.ldsp	x11,88(x2)
    80000192:	7606                	c.ldsp	x12,96(x2)
    80000194:	76a6                	c.ldsp	x13,104(x2)
    80000196:	7746                	c.ldsp	x14,112(x2)
    80000198:	77e6                	c.ldsp	x15,120(x2)
    8000019a:	680a                	c.ldsp	x16,128(x2)
    8000019c:	68aa                	c.ldsp	x17,136(x2)
    8000019e:	694a                	c.ldsp	x18,144(x2)
    800001a0:	69ea                	c.ldsp	x19,152(x2)
    800001a2:	7a0a                	c.ldsp	x20,160(x2)
    800001a4:	7aaa                	c.ldsp	x21,168(x2)
    800001a6:	7b4a                	c.ldsp	x22,176(x2)
    800001a8:	7bea                	c.ldsp	x23,184(x2)
    800001aa:	6c0e                	c.ldsp	x24,192(x2)
    800001ac:	6cae                	c.ldsp	x25,200(x2)
    800001ae:	6d4e                	c.ldsp	x26,208(x2)
    800001b0:	6dee                	c.ldsp	x27,216(x2)
    800001b2:	7e0e                	c.ldsp	x28,224(x2)
    800001b4:	7eae                	c.ldsp	x29,232(x2)
    800001b6:	7f4e                	c.ldsp	x30,240(x2)
    800001b8:	7fee                	c.ldsp	x31,248(x2)
    800001ba:	6151                	c.addi16sp	x2,272
    800001bc:	30200073          	mret
    800001c0:	0000                	c.unimp

Disassembly of section .text:

0000000080004088 <sprintf_putch>:
    80004088:	619c                	c.ld	x15,0(x11)
    8000408a:	00a78023          	sb	x10,0(x15)
    8000408e:	619c                	c.ld	x15,0(x11)
    80004090:	0785                	c.addi	x15,1
    80004092:	e19c                	c.sd	x15,0(x11)
    80004094:	8082                	c.jr	x1

0000000080004096 <vprintfmt.constprop.0>:
    80004096:	716d                	c.addi16sp	x2,-272
    80004098:	02500e13          	addi	x28,x0,37
    8000409c:	05500f93          	addi	x31,x0,85
    800040a0:	00001f17          	auipc	x30,0x1
    800040a4:	9d0f0f13          	addi	x30,x30,-1584 # 80004a70 <strcpy+0x12>
    800040a8:	a809                	c.j	800040ba <vprintfmt.constprop.0+0x24>
    800040aa:	c7a9                	c.beqz	x15,800040f4 <vprintfmt.constprop.0+0x5e>
    800040ac:	611c                	c.ld	x15,0(x10)
    800040ae:	0585                	c.addi	x11,1
    800040b0:	00e78023          	sb	x14,0(x15)
    800040b4:	611c                	c.ld	x15,0(x10)
    800040b6:	0785                	c.addi	x15,1
    800040b8:	e11c                	c.sd	x15,0(x10)
    800040ba:	0005c703          	lbu	x14,0(x11)
    800040be:	0007079b          	addiw	x15,x14,0
    800040c2:	ffc794e3          	bne	x15,x28,800040aa <vprintfmt.constprop.0+0x14>
    800040c6:	0015c683          	lbu	x13,1(x11)
    800040ca:	00158893          	addi	x17,x11,1
    800040ce:	587d                	c.li	x16,-1
    800040d0:	8746                	c.mv	x14,x17
    800040d2:	82c2                	c.mv	x5,x16
    800040d4:	02000393          	addi	x7,x0,32
    800040d8:	4301                	c.li	x6,0
    800040da:	fdd6879b          	addiw	x15,x13,-35
    800040de:	0ff7f793          	andi	x15,x15,255
    800040e2:	00170593          	addi	x11,x14,1
    800040e6:	02ffe563          	bltu	x31,x15,80004110 <vprintfmt.constprop.0+0x7a>
    800040ea:	21e7c7b3          	sh2add	x15,x15,x30
    800040ee:	439c                	c.lw	x15,0(x15)
    800040f0:	97fa                	c.add	x15,x30
    800040f2:	8782                	c.jr	x15
    800040f4:	6151                	c.addi16sp	x2,272
    800040f6:	8082                	c.jr	x1
    800040f8:	83b6                	c.mv	x7,x13
    800040fa:	00174683          	lbu	x13,1(x14)
    800040fe:	872e                	c.mv	x14,x11
    80004100:	00170593          	addi	x11,x14,1
    80004104:	fdd6879b          	addiw	x15,x13,-35
    80004108:	0ff7f793          	andi	x15,x15,255
    8000410c:	fcffffe3          	bgeu	x31,x15,800040ea <vprintfmt.constprop.0+0x54>
    80004110:	611c                	c.ld	x15,0(x10)
    80004112:	02500713          	addi	x14,x0,37
    80004116:	85c6                	c.mv	x11,x17
    80004118:	00e78023          	sb	x14,0(x15)
    8000411c:	611c                	c.ld	x15,0(x10)
    8000411e:	0785                	c.addi	x15,1
    80004120:	e11c                	c.sd	x15,0(x10)
    80004122:	bf61                	c.j	800040ba <vprintfmt.constprop.0+0x24>
    80004124:	e622                	c.sdsp	x8,264(x2)
    80004126:	fd06881b          	addiw	x16,x13,-48
    8000412a:	00174683          	lbu	x13,1(x14)
    8000412e:	4425                	c.li	x8,9
    80004130:	872e                	c.mv	x14,x11
    80004132:	fd06879b          	addiw	x15,x13,-48
    80004136:	00068e9b          	addiw	x29,x13,0
    8000413a:	02f46563          	bltu	x8,x15,80004164 <vprintfmt.constprop.0+0xce>
    8000413e:	0028179b          	slliw	x15,x16,0x2
    80004142:	00174683          	lbu	x13,1(x14)
    80004146:	010787bb          	addw	x15,x15,x16
    8000414a:	0017979b          	slliw	x15,x15,0x1
    8000414e:	01d787bb          	addw	x15,x15,x29
    80004152:	fd06859b          	addiw	x11,x13,-48
    80004156:	0705                	c.addi	x14,1
    80004158:	fd07881b          	addiw	x16,x15,-48
    8000415c:	00068e9b          	addiw	x29,x13,0
    80004160:	fcb47fe3          	bgeu	x8,x11,8000413e <vprintfmt.constprop.0+0xa8>
    80004164:	6432                	c.ldsp	x8,264(x2)
    80004166:	f602dae3          	bge	x5,x0,800040da <vprintfmt.constprop.0+0x44>
    8000416a:	82c2                	c.mv	x5,x16
    8000416c:	587d                	c.li	x16,-1
    8000416e:	b7b5                	c.j	800040da <vprintfmt.constprop.0+0x44>
    80004170:	00174683          	lbu	x13,1(x14)
    80004174:	872e                	c.mv	x14,x11
    80004176:	b795                	c.j	800040da <vprintfmt.constprop.0+0x44>
    80004178:	611c                	c.ld	x15,0(x10)
    8000417a:	02500713          	addi	x14,x0,37
    8000417e:	00e78023          	sb	x14,0(x15)
    80004182:	611c                	c.ld	x15,0(x10)
    80004184:	0785                	c.addi	x15,1
    80004186:	e11c                	c.sd	x15,0(x10)
    80004188:	bf0d                	c.j	800040ba <vprintfmt.constprop.0+0x24>
    8000418a:	00174683          	lbu	x13,1(x14)
    8000418e:	00062803          	lw	x16,0(x12)
    80004192:	872e                	c.mv	x14,x11
    80004194:	0621                	c.addi	x12,8
    80004196:	bfc1                	c.j	80004166 <vprintfmt.constprop.0+0xd0>
    80004198:	611c                	c.ld	x15,0(x10)
    8000419a:	03000713          	addi	x14,x0,48
    8000419e:	07800693          	addi	x13,x0,120
    800041a2:	00e78023          	sb	x14,0(x15)
    800041a6:	611c                	c.ld	x15,0(x10)
    800041a8:	48c1                	c.li	x17,16
    800041aa:	00860713          	addi	x14,x12,8
    800041ae:	00178813          	addi	x16,x15,1
    800041b2:	01053023          	sd	x16,0(x10)
    800041b6:	00d780a3          	sb	x13,1(x15)
    800041ba:	611c                	c.ld	x15,0(x10)
    800041bc:	0785                	c.addi	x15,1
    800041be:	e11c                	c.sd	x15,0(x10)
    800041c0:	6214                	c.ld	x13,0(x12)
    800041c2:	863a                	c.mv	x12,x14
    800041c4:	0316f733          	remu	x14,x13,x17
    800041c8:	00410313          	addi	x6,x2,4
    800041cc:	4805                	c.li	x16,1
    800041ce:	c03a                	c.swsp	x14,0(x2)
    800041d0:	1b16e763          	bltu	x13,x17,8000437e <vprintfmt.constprop.0+0x2e8>
    800041d4:	0316d6b3          	divu	x13,x13,x17
    800041d8:	8742                	c.mv	x14,x16
    800041da:	0311                	c.addi	x6,4
    800041dc:	2805                	c.addiw	x16,1
    800041de:	0316feb3          	remu	x29,x13,x17
    800041e2:	ffd32e23          	sw	x29,-4(x6)
    800041e6:	ff16f7e3          	bgeu	x13,x17,800041d4 <vprintfmt.constprop.0+0x13e>
    800041ea:	fff2869b          	addiw	x13,x5,-1
    800041ee:	fff8089b          	addiw	x17,x16,-1
    800041f2:	00585a63          	bge	x16,x5,80004206 <vprintfmt.constprop.0+0x170>
    800041f6:	00778023          	sb	x7,0(x15)
    800041fa:	611c                	c.ld	x15,0(x10)
    800041fc:	36fd                	c.addiw	x13,-1
    800041fe:	0785                	c.addi	x15,1
    80004200:	e11c                	c.sd	x15,0(x10)
    80004202:	fed89ae3          	bne	x17,x13,800041f6 <vprintfmt.constprop.0+0x160>
    80004206:	20274733          	sh2add	x14,x14,x2
    8000420a:	ffc10893          	addi	x17,x2,-4
    8000420e:	4825                	c.li	x16,9
    80004210:	a819                	c.j	80004226 <vprintfmt.constprop.0+0x190>
    80004212:	0576869b          	addiw	x13,x13,87
    80004216:	00d78023          	sb	x13,0(x15)
    8000421a:	611c                	c.ld	x15,0(x10)
    8000421c:	1771                	c.addi	x14,-4
    8000421e:	0785                	c.addi	x15,1
    80004220:	e11c                	c.sd	x15,0(x10)
    80004222:	e8e88ce3          	beq	x17,x14,800040ba <vprintfmt.constprop.0+0x24>
    80004226:	4314                	c.lw	x13,0(x14)
    80004228:	fed865e3          	bltu	x16,x13,80004212 <vprintfmt.constprop.0+0x17c>
    8000422c:	0306869b          	addiw	x13,x13,48
    80004230:	b7dd                	c.j	80004216 <vprintfmt.constprop.0+0x180>
    80004232:	4785                	c.li	x15,1
    80004234:	00860713          	addi	x14,x12,8
    80004238:	0067c463          	blt	x15,x6,80004240 <vprintfmt.constprop.0+0x1aa>
    8000423c:	14030363          	beq	x6,x0,80004382 <vprintfmt.constprop.0+0x2ec>
    80004240:	6214                	c.ld	x13,0(x12)
    80004242:	611c                	c.ld	x15,0(x10)
    80004244:	1406c563          	blt	x13,x0,8000438e <vprintfmt.constprop.0+0x2f8>
    80004248:	863a                	c.mv	x12,x14
    8000424a:	48a9                	c.li	x17,10
    8000424c:	bfa5                	c.j	800041c4 <vprintfmt.constprop.0+0x12e>
    8000424e:	00174683          	lbu	x13,1(x14)
    80004252:	2305                	c.addiw	x6,1
    80004254:	872e                	c.mv	x14,x11
    80004256:	b551                	c.j	800040da <vprintfmt.constprop.0+0x44>
    80004258:	48c1                	c.li	x17,16
    8000425a:	4685                	c.li	x13,1
    8000425c:	611c                	c.ld	x15,0(x10)
    8000425e:	00860713          	addi	x14,x12,8
    80004262:	f466cfe3          	blt	x13,x6,800041c0 <vprintfmt.constprop.0+0x12a>
    80004266:	f4031de3          	bne	x6,x0,800041c0 <vprintfmt.constprop.0+0x12a>
    8000426a:	00066683          	lwu	x13,0(x12)
    8000426e:	863a                	c.mv	x12,x14
    80004270:	bf91                	c.j	800041c4 <vprintfmt.constprop.0+0x12e>
    80004272:	6218                	c.ld	x14,0(x12)
    80004274:	cb19                	c.beqz	x14,8000428a <vprintfmt.constprop.0+0x1f4>
    80004276:	06505663          	bge	x0,x5,800042e2 <vprintfmt.constprop.0+0x24c>
    8000427a:	02d00793          	addi	x15,x0,45
    8000427e:	02f39863          	bne	x7,x15,800042ae <vprintfmt.constprop.0+0x218>
    80004282:	00074783          	lbu	x15,0(x14)
    80004286:	e3ad                	c.bnez	x15,800042e8 <vprintfmt.constprop.0+0x252>
    80004288:	a879                	c.j	80004326 <vprintfmt.constprop.0+0x290>
    8000428a:	00001717          	auipc	x14,0x1
    8000428e:	93e70713          	addi	x14,x14,-1730 # 80004bc8 <strcpy+0x16a>
    80004292:	02800793          	addi	x15,x0,40
    80004296:	04505963          	bge	x0,x5,800042e8 <vprintfmt.constprop.0+0x252>
    8000429a:	02d00693          	addi	x13,x0,45
    8000429e:	00001717          	auipc	x14,0x1
    800042a2:	92a70713          	addi	x14,x14,-1750 # 80004bc8 <strcpy+0x16a>
    800042a6:	02800793          	addi	x15,x0,40
    800042aa:	02d38f63          	beq	x7,x13,800042e8 <vprintfmt.constprop.0+0x252>
    800042ae:	87ba                	c.mv	x15,x14
    800042b0:	010708b3          	add	x17,x14,x16
    800042b4:	00081663          	bne	x16,x0,800042c0 <vprintfmt.constprop.0+0x22a>
    800042b8:	a821                	c.j	800042d0 <vprintfmt.constprop.0+0x23a>
    800042ba:	0785                	c.addi	x15,1
    800042bc:	01178563          	beq	x15,x17,800042c6 <vprintfmt.constprop.0+0x230>
    800042c0:	0007c683          	lbu	x13,0(x15)
    800042c4:	fafd                	c.bnez	x13,800042ba <vprintfmt.constprop.0+0x224>
    800042c6:	8f99                	c.sub	x15,x14
    800042c8:	40f282bb          	subw	x5,x5,x15
    800042cc:	00505b63          	bge	x0,x5,800042e2 <vprintfmt.constprop.0+0x24c>
    800042d0:	611c                	c.ld	x15,0(x10)
    800042d2:	00778023          	sb	x7,0(x15)
    800042d6:	611c                	c.ld	x15,0(x10)
    800042d8:	32fd                	c.addiw	x5,-1
    800042da:	0785                	c.addi	x15,1
    800042dc:	e11c                	c.sd	x15,0(x10)
    800042de:	fe029ae3          	bne	x5,x0,800042d2 <vprintfmt.constprop.0+0x23c>
    800042e2:	00074783          	lbu	x15,0(x14)
    800042e6:	cbb9                	c.beqz	x15,8000433c <vprintfmt.constprop.0+0x2a6>
    800042e8:	58fd                	c.li	x17,-1
    800042ea:	04085b63          	bge	x16,x0,80004340 <vprintfmt.constprop.0+0x2aa>
    800042ee:	6114                	c.ld	x13,0(x10)
    800042f0:	00170813          	addi	x16,x14,1
    800042f4:	32fd                	c.addiw	x5,-1
    800042f6:	00f68023          	sb	x15,0(x13)
    800042fa:	611c                	c.ld	x15,0(x10)
    800042fc:	86c2                	c.mv	x13,x16
    800042fe:	0785                	c.addi	x15,1
    80004300:	e11c                	c.sd	x15,0(x10)
    80004302:	00174703          	lbu	x14,1(x14)
    80004306:	cf11                	c.beqz	x14,80004322 <vprintfmt.constprop.0+0x28c>
    80004308:	00e78023          	sb	x14,0(x15)
    8000430c:	611c                	c.ld	x15,0(x10)
    8000430e:	0685                	c.addi	x13,1
    80004310:	0785                	c.addi	x15,1
    80004312:	e11c                	c.sd	x15,0(x10)
    80004314:	0006c703          	lbu	x14,0(x13)
    80004318:	fb65                	c.bnez	x14,80004308 <vprintfmt.constprop.0+0x272>
    8000431a:	40d8083b          	subw	x16,x16,x13
    8000431e:	005802bb          	addw	x5,x16,x5
    80004322:	00505d63          	bge	x0,x5,8000433c <vprintfmt.constprop.0+0x2a6>
    80004326:	611c                	c.ld	x15,0(x10)
    80004328:	02000713          	addi	x14,x0,32
    8000432c:	00e78023          	sb	x14,0(x15)
    80004330:	611c                	c.ld	x15,0(x10)
    80004332:	32fd                	c.addiw	x5,-1
    80004334:	0785                	c.addi	x15,1
    80004336:	e11c                	c.sd	x15,0(x10)
    80004338:	fe029ae3          	bne	x5,x0,8000432c <vprintfmt.constprop.0+0x296>
    8000433c:	0621                	c.addi	x12,8
    8000433e:	bbb5                	c.j	800040ba <vprintfmt.constprop.0+0x24>
    80004340:	387d                	c.addiw	x16,-1
    80004342:	ff1800e3          	beq	x16,x17,80004322 <vprintfmt.constprop.0+0x28c>
    80004346:	6114                	c.ld	x13,0(x10)
    80004348:	0705                	c.addi	x14,1
    8000434a:	32fd                	c.addiw	x5,-1
    8000434c:	00f68023          	sb	x15,0(x13)
    80004350:	611c                	c.ld	x15,0(x10)
    80004352:	0785                	c.addi	x15,1
    80004354:	e11c                	c.sd	x15,0(x10)
    80004356:	00074783          	lbu	x15,0(x14)
    8000435a:	f3fd                	c.bnez	x15,80004340 <vprintfmt.constprop.0+0x2aa>
    8000435c:	b7d9                	c.j	80004322 <vprintfmt.constprop.0+0x28c>
    8000435e:	0a02e2b3          	max	x5,x5,x0
    80004362:	00174683          	lbu	x13,1(x14)
    80004366:	2281                	c.addiw	x5,0
    80004368:	872e                	c.mv	x14,x11
    8000436a:	bb85                	c.j	800040da <vprintfmt.constprop.0+0x44>
    8000436c:	611c                	c.ld	x15,0(x10)
    8000436e:	4218                	c.lw	x14,0(x12)
    80004370:	0621                	c.addi	x12,8
    80004372:	00e78023          	sb	x14,0(x15)
    80004376:	611c                	c.ld	x15,0(x10)
    80004378:	0785                	c.addi	x15,1
    8000437a:	e11c                	c.sd	x15,0(x10)
    8000437c:	bb3d                	c.j	800040ba <vprintfmt.constprop.0+0x24>
    8000437e:	4701                	c.li	x14,0
    80004380:	b5ad                	c.j	800041ea <vprintfmt.constprop.0+0x154>
    80004382:	4214                	c.lw	x13,0(x12)
    80004384:	bd7d                	c.j	80004242 <vprintfmt.constprop.0+0x1ac>
    80004386:	48a9                	c.li	x17,10
    80004388:	bdc9                	c.j	8000425a <vprintfmt.constprop.0+0x1c4>
    8000438a:	48a1                	c.li	x17,8
    8000438c:	b5f9                	c.j	8000425a <vprintfmt.constprop.0+0x1c4>
    8000438e:	02d00613          	addi	x12,x0,45
    80004392:	00c78023          	sb	x12,0(x15)
    80004396:	611c                	c.ld	x15,0(x10)
    80004398:	40d006b3          	sub	x13,x0,x13
    8000439c:	863a                	c.mv	x12,x14
    8000439e:	0785                	c.addi	x15,1
    800043a0:	e11c                	c.sd	x15,0(x10)
    800043a2:	48a9                	c.li	x17,10
    800043a4:	b505                	c.j	800041c4 <vprintfmt.constprop.0+0x12e>

00000000800043a6 <_pass>:
    800043a6:	8082                	c.jr	x1

00000000800043a8 <handle_trap>:
    800043a8:	6785                	c.lui	x15,0x1
    800043aa:	a7378793          	addi	x15,x15,-1421 # a73 <buflen.0+0xa33>
    800043ae:	ffffd717          	auipc	x14,0xffffd
    800043b2:	c4f73923          	sd	x15,-942(x14) # 80001000 <tohost>
    800043b6:	a001                	c.j	800043b6 <handle_trap+0xe>

00000000800043b8 <exit>:
    800043b8:	00151793          	slli	x15,x10,0x1
    800043bc:	0017e793          	ori	x15,x15,1
    800043c0:	ffffd717          	auipc	x14,0xffffd
    800043c4:	c4f73023          	sd	x15,-960(x14) # 80001000 <tohost>
    800043c8:	a001                	c.j	800043c8 <exit+0x10>

00000000800043ca <putchar>:
    800043ca:	04022783          	lw	x15,64(x4) # 40 <buflen.0>
    800043ce:	00020713          	addi	x14,x4,0 # 0 <buf.1>
    800043d2:	7159                	c.addi16sp	x2,-112
    800043d4:	973e                	c.add	x14,x15
    800043d6:	2785                	c.addiw	x15,1
    800043d8:	00a70023          	sb	x10,0(x14)
    800043dc:	04f22023          	sw	x15,64(x4) # 40 <buflen.0>
    800043e0:	03f10713          	addi	x14,x2,63
    800043e4:	45a9                	c.li	x11,10
    800043e6:	fc077713          	andi	x14,x14,-64
    800043ea:	00b50963          	beq	x10,x11,800043fc <putchar+0x32>
    800043ee:	04000593          	addi	x11,x0,64
    800043f2:	00b78563          	beq	x15,x11,800043fc <putchar+0x32>
    800043f6:	4501                	c.li	x10,0
    800043f8:	6165                	c.addi16sp	x2,112
    800043fa:	8082                	c.jr	x1
    800043fc:	04000593          	addi	x11,x0,64
    80004400:	e30c                	c.sd	x11,0(x14)
    80004402:	4585                	c.li	x11,1
    80004404:	e70c                	c.sd	x11,8(x14)
    80004406:	00020693          	addi	x13,x4,0 # 0 <buf.1>
    8000440a:	eb14                	c.sd	x13,16(x14)
    8000440c:	ef1c                	c.sd	x15,24(x14)
    8000440e:	0330000f          	fence	rw,rw
    80004412:	ffffe697          	auipc	x13,0xffffe
    80004416:	c2e68693          	addi	x13,x13,-978 # 80002040 <fromhost>
    8000441a:	ffffd797          	auipc	x15,0xffffd
    8000441e:	bee7b323          	sd	x14,-1050(x15) # 80001000 <tohost>
    80004422:	629c                	c.ld	x15,0(x13)
    80004424:	dffd                	c.beqz	x15,80004422 <putchar+0x58>
    80004426:	ffffe797          	auipc	x15,0xffffe
    8000442a:	c007bd23          	sd	x0,-998(x15) # 80002040 <fromhost>
    8000442e:	0330000f          	fence	rw,rw
    80004432:	04022023          	sw	x0,64(x4) # 40 <buflen.0>
    80004436:	631c                	c.ld	x15,0(x14)
    80004438:	4501                	c.li	x10,0
    8000443a:	6165                	c.addi16sp	x2,112
    8000443c:	8082                	c.jr	x1

000000008000443e <sprintf>:
    8000443e:	711d                	c.addi16sp	x2,-96
    80004440:	03010313          	addi	x6,x2,48
    80004444:	f022                	c.sdsp	x8,32(x2)
    80004446:	e42a                	c.sdsp	x10,8(x2)
    80004448:	f832                	c.sdsp	x12,48(x2)
    8000444a:	842a                	c.mv	x8,x10
    8000444c:	861a                	c.mv	x12,x6
    8000444e:	0028                	c.addi4spn	x10,x2,8
    80004450:	f406                	c.sdsp	x1,40(x2)
    80004452:	fc36                	c.sdsp	x13,56(x2)
    80004454:	e0ba                	c.sdsp	x14,64(x2)
    80004456:	e4be                	c.sdsp	x15,72(x2)
    80004458:	e8c2                	c.sdsp	x16,80(x2)
    8000445a:	ecc6                	c.sdsp	x17,88(x2)
    8000445c:	ec1a                	c.sdsp	x6,24(x2)
    8000445e:	c39ff0ef          	jal	x1,80004096 <vprintfmt.constprop.0>
    80004462:	6522                	c.ldsp	x10,8(x2)
    80004464:	00050023          	sb	x0,0(x10)
    80004468:	70a2                	c.ldsp	x1,40(x2)
    8000446a:	9d01                	c.subw	x10,x8
    8000446c:	7402                	c.ldsp	x8,32(x2)
    8000446e:	6125                	c.addi16sp	x2,96
    80004470:	8082                	c.jr	x1

0000000080004472 <memcpy>:
    80004472:	00c5e833          	or	x16,x11,x12
    80004476:	00a86833          	or	x16,x16,x10
    8000447a:	00787813          	andi	x16,x16,7
    8000447e:	87ae                	c.mv	x15,x11
    80004480:	872a                	c.mv	x14,x10
    80004482:	00c506b3          	add	x13,x10,x12
    80004486:	0a080b63          	beq	x16,x0,8000453c <memcpy+0xca>
    8000448a:	0ed57263          	bgeu	x10,x13,8000456e <memcpy+0xfc>
    8000448e:	fff60813          	addi	x16,x12,-1
    80004492:	489d                	c.li	x17,7
    80004494:	0b08ff63          	bgeu	x17,x16,80004552 <memcpy+0xe0>
    80004498:	00b56833          	or	x16,x10,x11
    8000449c:	00787813          	andi	x16,x16,7
    800044a0:	0a081963          	bne	x16,x0,80004552 <memcpy+0xe0>
    800044a4:	00158813          	addi	x16,x11,1
    800044a8:	410508b3          	sub	x17,x10,x16
    800044ac:	0078b893          	sltiu	x17,x17,7
    800044b0:	0a089363          	bne	x17,x0,80004556 <memcpy+0xe4>
    800044b4:	ff867893          	andi	x17,x12,-8
    800044b8:	01158833          	add	x16,x11,x17
    800044bc:	638c                	c.ld	x11,0(x15)
    800044be:	07a1                	c.addi	x15,8
    800044c0:	0721                	c.addi	x14,8
    800044c2:	feb73c23          	sd	x11,-8(x14)
    800044c6:	fef81be3          	bne	x16,x15,800044bc <memcpy+0x4a>
    800044ca:	011507b3          	add	x15,x10,x17
    800044ce:	09160f63          	beq	x12,x17,8000456c <memcpy+0xfa>
    800044d2:	00084603          	lbu	x12,0(x16)
    800044d6:	00178713          	addi	x14,x15,1
    800044da:	00c78023          	sb	x12,0(x15)
    800044de:	08d77763          	bgeu	x14,x13,8000456c <memcpy+0xfa>
    800044e2:	00184603          	lbu	x12,1(x16)
    800044e6:	00278713          	addi	x14,x15,2
    800044ea:	00c780a3          	sb	x12,1(x15)
    800044ee:	06d77f63          	bgeu	x14,x13,8000456c <memcpy+0xfa>
    800044f2:	00284603          	lbu	x12,2(x16)
    800044f6:	00378713          	addi	x14,x15,3
    800044fa:	00c78123          	sb	x12,2(x15)
    800044fe:	06d77763          	bgeu	x14,x13,8000456c <memcpy+0xfa>
    80004502:	00384603          	lbu	x12,3(x16)
    80004506:	00478713          	addi	x14,x15,4
    8000450a:	00c781a3          	sb	x12,3(x15)
    8000450e:	04d77f63          	bgeu	x14,x13,8000456c <memcpy+0xfa>
    80004512:	00484603          	lbu	x12,4(x16)
    80004516:	00578713          	addi	x14,x15,5
    8000451a:	00c78223          	sb	x12,4(x15)
    8000451e:	04d77763          	bgeu	x14,x13,8000456c <memcpy+0xfa>
    80004522:	00584603          	lbu	x12,5(x16)
    80004526:	00678713          	addi	x14,x15,6
    8000452a:	00c782a3          	sb	x12,5(x15)
    8000452e:	02d77f63          	bgeu	x14,x13,8000456c <memcpy+0xfa>
    80004532:	00684703          	lbu	x14,6(x16)
    80004536:	00e78323          	sb	x14,6(x15)
    8000453a:	8082                	c.jr	x1
    8000453c:	02d57863          	bgeu	x10,x13,8000456c <memcpy+0xfa>
    80004540:	87aa                	c.mv	x15,x10
    80004542:	6198                	c.ld	x14,0(x11)
    80004544:	07a1                	c.addi	x15,8
    80004546:	05a1                	c.addi	x11,8
    80004548:	fee7bc23          	sd	x14,-8(x15)
    8000454c:	fed7ebe3          	bltu	x15,x13,80004542 <memcpy+0xd0>
    80004550:	8082                	c.jr	x1
    80004552:	00158813          	addi	x16,x11,1
    80004556:	95b2                	c.add	x11,x12
    80004558:	87aa                	c.mv	x15,x10
    8000455a:	a011                	c.j	8000455e <memcpy+0xec>
    8000455c:	0805                	c.addi	x16,1
    8000455e:	fff84703          	lbu	x14,-1(x16)
    80004562:	0785                	c.addi	x15,1
    80004564:	fee78fa3          	sb	x14,-1(x15)
    80004568:	feb81ae3          	bne	x16,x11,8000455c <memcpy+0xea>
    8000456c:	8082                	c.jr	x1
    8000456e:	8082                	c.jr	x1

0000000080004570 <memset>:
    80004570:	00c567b3          	or	x15,x10,x12
    80004574:	8b9d                	c.andi	x15,7
    80004576:	00c50833          	add	x16,x10,x12
    8000457a:	16078563          	beq	x15,x0,800046e4 <memset+0x174>
    8000457e:	19057763          	bgeu	x10,x16,8000470c <memset+0x19c>
    80004582:	40a006b3          	sub	x13,x0,x10
    80004586:	0076f793          	andi	x15,x13,7
    8000458a:	472d                	c.li	x14,11
    8000458c:	00778893          	addi	x17,x15,7
    80004590:	0ae8f8b3          	maxu	x17,x17,x14
    80004594:	fff60313          	addi	x6,x12,-1
    80004598:	0ff5f713          	andi	x14,x11,255
    8000459c:	19136263          	bltu	x6,x17,80004720 <memset+0x1b0>
    800045a0:	16078e63          	beq	x15,x0,8000471c <memset+0x1ac>
    800045a4:	00e50023          	sb	x14,0(x10)
    800045a8:	0066f593          	andi	x11,x13,6
    800045ac:	16058563          	beq	x11,x0,80004716 <memset+0x1a6>
    800045b0:	00e500a3          	sb	x14,1(x10)
    800045b4:	4589                	c.li	x11,2
    800045b6:	16f5f763          	bgeu	x11,x15,80004724 <memset+0x1b4>
    800045ba:	00e50123          	sb	x14,2(x10)
    800045be:	8a91                	c.andi	x13,4
    800045c0:	00350593          	addi	x11,x10,3
    800045c4:	c695                	c.beqz	x13,800045f0 <memset+0x80>
    800045c6:	00e501a3          	sb	x14,3(x10)
    800045ca:	4691                	c.li	x13,4
    800045cc:	14f6f163          	bgeu	x13,x15,8000470e <memset+0x19e>
    800045d0:	00e50223          	sb	x14,4(x10)
    800045d4:	4695                	c.li	x13,5
    800045d6:	12d78c63          	beq	x15,x13,8000470e <memset+0x19e>
    800045da:	00e502a3          	sb	x14,5(x10)
    800045de:	469d                	c.li	x13,7
    800045e0:	00650593          	addi	x11,x10,6
    800045e4:	00d79663          	bne	x15,x13,800045f0 <memset+0x80>
    800045e8:	00e50323          	sb	x14,6(x10)
    800045ec:	00750593          	addi	x11,x10,7
    800045f0:	00871693          	slli	x13,x14,0x8
    800045f4:	01071893          	slli	x17,x14,0x10
    800045f8:	8ed9                	c.or	x13,x14
    800045fa:	0116e6b3          	or	x13,x13,x17
    800045fe:	01871893          	slli	x17,x14,0x18
    80004602:	0116e6b3          	or	x13,x13,x17
    80004606:	02071893          	slli	x17,x14,0x20
    8000460a:	0116e6b3          	or	x13,x13,x17
    8000460e:	02871893          	slli	x17,x14,0x28
    80004612:	8e1d                	c.sub	x12,x15
    80004614:	0116e6b3          	or	x13,x13,x17
    80004618:	03071893          	slli	x17,x14,0x30
    8000461c:	0116e6b3          	or	x13,x13,x17
    80004620:	97aa                	c.add	x15,x10
    80004622:	03871893          	slli	x17,x14,0x38
    80004626:	ff867313          	andi	x6,x12,-8
    8000462a:	0116e6b3          	or	x13,x13,x17
    8000462e:	00f308b3          	add	x17,x6,x15
    80004632:	e394                	c.sd	x13,0(x15)
    80004634:	07a1                	c.addi	x15,8
    80004636:	ff179ee3          	bne	x15,x17,80004632 <memset+0xc2>
    8000463a:	006587b3          	add	x15,x11,x6
    8000463e:	0cc30b63          	beq	x6,x12,80004714 <memset+0x1a4>
    80004642:	00e78023          	sb	x14,0(x15)
    80004646:	00178693          	addi	x13,x15,1
    8000464a:	0906fc63          	bgeu	x13,x16,800046e2 <memset+0x172>
    8000464e:	00e780a3          	sb	x14,1(x15)
    80004652:	00278693          	addi	x13,x15,2
    80004656:	0906f663          	bgeu	x13,x16,800046e2 <memset+0x172>
    8000465a:	00e78123          	sb	x14,2(x15)
    8000465e:	00378693          	addi	x13,x15,3
    80004662:	0906f063          	bgeu	x13,x16,800046e2 <memset+0x172>
    80004666:	00e781a3          	sb	x14,3(x15)
    8000466a:	00478693          	addi	x13,x15,4
    8000466e:	0706fa63          	bgeu	x13,x16,800046e2 <memset+0x172>
    80004672:	00e78223          	sb	x14,4(x15)
    80004676:	00578693          	addi	x13,x15,5
    8000467a:	0706f463          	bgeu	x13,x16,800046e2 <memset+0x172>
    8000467e:	00e782a3          	sb	x14,5(x15)
    80004682:	00678693          	addi	x13,x15,6
    80004686:	0506fe63          	bgeu	x13,x16,800046e2 <memset+0x172>
    8000468a:	00e78323          	sb	x14,6(x15)
    8000468e:	00778693          	addi	x13,x15,7
    80004692:	0506f863          	bgeu	x13,x16,800046e2 <memset+0x172>
    80004696:	00e783a3          	sb	x14,7(x15)
    8000469a:	00878693          	addi	x13,x15,8
    8000469e:	0506f263          	bgeu	x13,x16,800046e2 <memset+0x172>
    800046a2:	00e78423          	sb	x14,8(x15)
    800046a6:	00978693          	addi	x13,x15,9
    800046aa:	0306fc63          	bgeu	x13,x16,800046e2 <memset+0x172>
    800046ae:	00e784a3          	sb	x14,9(x15)
    800046b2:	00a78693          	addi	x13,x15,10
    800046b6:	0306f663          	bgeu	x13,x16,800046e2 <memset+0x172>
    800046ba:	00e78523          	sb	x14,10(x15)
    800046be:	00b78693          	addi	x13,x15,11
    800046c2:	0306f063          	bgeu	x13,x16,800046e2 <memset+0x172>
    800046c6:	00e785a3          	sb	x14,11(x15)
    800046ca:	00c78693          	addi	x13,x15,12
    800046ce:	0106fa63          	bgeu	x13,x16,800046e2 <memset+0x172>
    800046d2:	00e78623          	sb	x14,12(x15)
    800046d6:	00d78693          	addi	x13,x15,13
    800046da:	0106f463          	bgeu	x13,x16,800046e2 <memset+0x172>
    800046de:	00e786a3          	sb	x14,13(x15)
    800046e2:	8082                	c.jr	x1
    800046e4:	010107b7          	lui	x15,0x1010
    800046e8:	10178793          	addi	x15,x15,257 # 1010101 <buflen.0+0x10100c1>
    800046ec:	02079693          	slli	x13,x15,0x20
    800046f0:	0ff5f713          	andi	x14,x11,255
    800046f4:	97b6                	c.add	x15,x13
    800046f6:	02f70733          	mul	x14,x14,x15
    800046fa:	ff0574e3          	bgeu	x10,x16,800046e2 <memset+0x172>
    800046fe:	87aa                	c.mv	x15,x10
    80004700:	07a1                	c.addi	x15,8
    80004702:	fee7bc23          	sd	x14,-8(x15)
    80004706:	ff07ede3          	bltu	x15,x16,80004700 <memset+0x190>
    8000470a:	8082                	c.jr	x1
    8000470c:	8082                	c.jr	x1
    8000470e:	00d505b3          	add	x11,x10,x13
    80004712:	bdf9                	c.j	800045f0 <memset+0x80>
    80004714:	8082                	c.jr	x1
    80004716:	00150593          	addi	x11,x10,1
    8000471a:	bdd9                	c.j	800045f0 <memset+0x80>
    8000471c:	85aa                	c.mv	x11,x10
    8000471e:	bdc9                	c.j	800045f0 <memset+0x80>
    80004720:	87aa                	c.mv	x15,x10
    80004722:	b705                	c.j	80004642 <memset+0xd2>
    80004724:	95aa                	c.add	x11,x10
    80004726:	b5e9                	c.j	800045f0 <memset+0x80>

0000000080004728 <_init>:
    80004728:	7179                	c.addi16sp	x2,-48
    8000472a:	ec26                	c.sdsp	x9,24(x2)
    8000472c:	00000597          	auipc	x11,0x0
    80004730:	4a358593          	addi	x11,x11,1187 # 80004bcf <__bss_end>
    80004734:	00000497          	auipc	x9,0x0
    80004738:	49b48493          	addi	x9,x9,1179 # 80004bcf <__bss_end>
    8000473c:	e84a                	c.sdsp	x18,16(x2)
    8000473e:	40b48933          	sub	x18,x9,x11
    80004742:	f022                	c.sdsp	x8,32(x2)
    80004744:	864a                	c.mv	x12,x18
    80004746:	842a                	c.mv	x8,x10
    80004748:	8512                	c.mv	x10,x4
    8000474a:	e44e                	c.sdsp	x19,8(x2)
    8000474c:	f406                	c.sdsp	x1,40(x2)
    8000474e:	8992                	c.mv	x19,x4
    80004750:	d23ff0ef          	jal	x1,80004472 <memcpy>
    80004754:	87c18613          	addi	x12,x3,-1924 # 80004c44 <_tbss_end>
    80004758:	01298533          	add	x10,x19,x18
    8000475c:	8e05                	c.sub	x12,x9
    8000475e:	4581                	c.li	x11,0
    80004760:	e11ff0ef          	jal	x1,80004570 <memset>
    80004764:	28041e63          	bne	x8,x0,80004a00 <_init+0x2d8>
    80004768:	00004033          	xor	x0,x0,x0
    8000476c:	0001                	c.addi	x0,0
    8000476e:	0001                	c.addi	x0,0
    80004770:	0001                	c.addi	x0,0
    80004772:	0001                	c.addi	x0,0
    80004774:	0001                	c.addi	x0,0
    80004776:	0001                	c.addi	x0,0
    80004778:	0001                	c.addi	x0,0
    8000477a:	0001                	c.addi	x0,0
    8000477c:	0001                	c.addi	x0,0
    8000477e:	0001                	c.addi	x0,0
    80004780:	0001                	c.addi	x0,0
    80004782:	0001                	c.addi	x0,0
    80004784:	0001                	c.addi	x0,0
    80004786:	0001                	c.addi	x0,0
    80004788:	0001                	c.addi	x0,0
    8000478a:	0001                	c.addi	x0,0
    8000478c:	97b6                	c.add	x15,x13
    8000478e:	1141                	c.addi	x2,-16
    80004790:	2785                	c.addiw	x15,1
    80004792:	00ce073b          	addw	x14,x28,x12
    80004796:	0000302f          	amoadd.d	x0,x0,(x0)
    8000479a:	0400302f          	amoadd.d.aq	x0,x0,(x0)
    8000479e:	000027af          	amoadd.w	x15,x0,(x0)
    800047a2:	04e427af          	amoadd.w.aq	x15,x14,(x8)
    800047a6:	060027af          	amoadd.w.aqrl	x15,x0,(x0)
    800047aa:	6400202f          	amoand.w.aq	x0,x0,(x0)
    800047ae:	e400302f          	amomaxu.d.aq	x0,x0,(x0)
    800047b2:	e400202f          	amomaxu.w.aq	x0,x0,(x0)
    800047b6:	4000202f          	amoor.w	x0,x0,(x0)
    800047ba:	440027af          	amoor.w.aq	x15,x0,(x0)
    800047be:	0c00352f          	amoswap.d.aq	x10,x0,(x0)
    800047c2:	0e0035af          	amoswap.d.aqrl	x11,x0,(x0)
    800047c6:	0800202f          	amoswap.w	x0,x0,(x0)
    800047ca:	0c00202f          	amoswap.w.aq	x0,x0,(x0)
    800047ce:	0a00202f          	amoswap.w.rl	x0,x0,(x0)
    800047d2:	00c5f6b3          	and	x13,x11,x12
    800047d6:	ff017113          	andi	x2,x2,-16
    800047da:	00091797          	auipc	x15,0x91
    800047de:	2a701913          	bseti	x18,x0,0x27
    800047e2:	0009                	c.addi	x0,2
    800047e4:	000a                	c.slli	x0,0x2
    800047e6:	0002                	c.slli64	x0
    800047e8:	00172073          	csrrs	x0,fflags,x14
    800047ec:	00186073          	csrrsi	x0,fflags,16
    800047f0:	03154533          	div	x10,x10,x17
    800047f4:	0379d9b3          	divu	x19,x19,x23
    800047f8:	02e6d6bb          	divuw	x13,x13,x14
    800047fc:	02d7c7bb          	divw	x15,x15,x13
    80004800:	22a527d3          	fsgnjx.d	f15,f10,f10
    80004804:	02e7f0d3          	fadd.d	f1,f15,f14
    80004808:	00c171d3          	fadd.s	f3,f2,f12
    8000480c:	42008153          	fcvt.d.s	f2,f1
    80004810:	d2098553          	fcvt.d.w	f10,x19
    80004814:	40107153          	fcvt.s.d	f2,f0
    80004818:	d002f153          	fcvt.s.w	f2,x5
    8000481c:	c2001ed3          	fcvt.w.d	x29,f0,rtz
    80004820:	c0061553          	fcvt.w.s	x10,f12,rtz
    80004824:	1ad77053          	fdiv.d	f0,f14,f13
    80004828:	1881f353          	fdiv.s	f6,f3,f8
    8000482c:	0330000f          	fence	rw,rw
    80004830:	a2a527d3          	feq.d	x15,f10,f10
    80004834:	23813407          	fld	f8,568(x2)
    80004838:	a0530353          	fle.s	x6,f6,f5
    8000483c:	a2f717d3          	flt.d	x15,f14,f15
    80004840:	a1129653          	flt.s	x12,f5,f17
    80004844:	00002987          	flw	f19,0(x0) # 0 <buf.1>
    80004848:	4a87f043          	fmadd.d	f0,f15,f8,f9
    8000484c:	19277243          	fmadd.s	f4,f14,f18,f3
    80004850:	290198d3          	fmax.s	f17,f3,f16
    80004854:	122171d3          	fmul.d	f3,f2,f2
    80004858:	113171d3          	fmul.s	f3,f2,f19
    8000485c:	22a507d3          	fsgnj.d	f15,f10,f10
    80004860:	f20605d3          	fmv.d.x	f11,x12
    80004864:	20c60353          	fsgnj.s	f6,f12,f12
    80004868:	f00007d3          	fmv.w.x	f15,x0
    8000486c:	e20507d3          	fmv.x.d	x15,f10
    80004870:	22a517d3          	fsgnjn.d	f15,f10,f10
    80004874:	20a51553          	fsgnjn.s	f10,f10,f10
    80004878:	52d7f6cb          	fnmsub.d	f13,f15,f13,f10
    8000487c:	00102773          	csrrs	x14,fflags,x0
    80004880:	002025f3          	csrrs	x11,frm,x0
    80004884:	22813c27          	fsd	f8,568(x2)
    80004888:	00171073          	csrrw	x0,fflags,x14
    8000488c:	58057553          	fsqrt.s	f10,f10
    80004890:	0a177753          	fsub.d	f14,f14,f1
    80004894:	08737553          	fsub.s	f10,f6,f7
    80004898:	128dac27          	fsw	f8,312(x27)
    8000489c:	00100503          	lb	x10,1(x0) # 1 <buf.1+0x1>
    800048a0:	00004c03          	lbu	x24,0(x0) # 0 <buf.1>
    800048a4:	00003783          	ld	x15,0(x0) # 0 <buf.1>
    800048a8:	00001603          	lh	x12,0(x0) # 0 <buf.1>
    800048ac:	00005e03          	lhu	x28,0(x0) # 0 <buf.1>
    800048b0:	4521                	c.li	x10,8
    800048b2:	1006b72f          	lr.d	x14,(x13)
    800048b6:	140537af          	lr.d.aq	x15,(x10)
    800048ba:	160736af          	lr.d.aqrl	x13,(x14)
    800048be:	1007a6af          	lr.w	x13,(x15)
    800048c2:	140427af          	lr.w.aq	x15,(x8)
    800048c6:	b8b1b7b7          	lui	x15,0xb8b1b
    800048ca:	00002783          	lw	x15,0(x0) # 0 <buf.1>
    800048ce:	000a6783          	lwu	x15,0(x20)
    800048d2:	0a096933          	max	x18,x18,x0
    800048d6:	0acac3b3          	min	x7,x21,x12
    800048da:	02d28533          	mul	x10,x5,x13
    800048de:	02e59733          	mulh	x14,x11,x14
    800048e2:	02b537b3          	mulhu	x15,x10,x11
    800048e6:	03598b3b          	mulw	x22,x19,x21
    800048ea:	842a                	c.mv	x8,x10
    800048ec:	40f007b3          	sub	x15,x0,x15
    800048f0:	409005bb          	subw	x11,x0,x9
    800048f4:	0001                	c.addi	x0,0
    800048f6:	fff7c793          	xori	x15,x15,-1
    800048fa:	010768b3          	or	x17,x14,x16
    800048fe:	0017e693          	ori	x13,x15,1
    80004902:	03157533          	remu	x10,x10,x17
    80004906:	0317773b          	remuw	x14,x14,x17
    8000490a:	02f6e6bb          	remw	x13,x13,x15
    8000490e:	00f00023          	sb	x15,0(x0) # 0 <buf.1>
    80004912:	18d5362f          	sc.d	x12,x13,(x10)
    80004916:	1a87362f          	sc.d.rl	x12,x8,(x14)
    8000491a:	18e426af          	sc.w	x13,x14,(x8)
    8000491e:	1ae425af          	sc.w.rl	x11,x14,(x8)
    80004922:	00000113          	addi	x2,x0,0
    80004926:	e406                	c.sdsp	x1,8(x2)
    80004928:	00163b93          	sltiu	x23,x12,1
    8000492c:	60579413          	sext.h	x8,x15
    80004930:	2781                	c.addiw	x15,0 # ffffffffb8b1b000 <STACK+0xffffffff38b15400>
    80004932:	00e02733          	slt	x14,x0,x14
    80004936:	018c9023          	sh	x24,0(x25)
    8000493a:	20c8acb3          	sh1add	x25,x17,x12
    8000493e:	20a5cfb3          	sh2add	x31,x11,x10
    80004942:	21cf6733          	sh3add	x14,x30,x28
    80004946:	01181833          	sll	x16,x16,x17
    8000494a:	1782                	c.slli	x15,0x20
    8000494c:	0032951b          	slliw	x10,x5,0x3
    80004950:	00d5183b          	sllw	x16,x10,x13
    80004954:	01152533          	slt	x10,x10,x17
    80004958:	00072893          	slti	x17,x14,0
    8000495c:	0025b593          	sltiu	x11,x11,2
    80004960:	00e7b7b3          	sltu	x15,x15,x14
    80004964:	00503533          	sltu	x10,x0,x5
    80004968:	40f55533          	sra	x10,x10,x15
    8000496c:	42d55313          	srai	x6,x10,0x2d
    80004970:	41f2d39b          	sraiw	x7,x5,0x1f
    80004974:	411e5ebb          	sraw	x29,x28,x17
    80004978:	00f55533          	srl	x10,x10,x15
    8000497c:	01c75793          	srli	x15,x14,0x1c
    80004980:	018e5e9b          	srliw	x29,x28,0x18
    80004984:	00d7d6bb          	srlw	x13,x15,x13
    80004988:	40f68633          	sub	x12,x13,x15
    8000498c:	407303bb          	subw	x7,x6,x7
    80004990:	00f02223          	sw	x15,4(x0) # 4 <buf.1+0x4>
    80004994:	00154513          	xori	x10,x10,1
    80004998:	0fff7c93          	andi	x25,x30,255
    8000499c:	0808c33b          	zext.h	x6,x17
    800049a0:	0805873b          	add.uw	x14,x11,x0
    800049a4:	0010c033          	xor	x0,x1,x1
    800049a8:	ffffe797          	auipc	x15,0xffffe
    800049ac:	6c078c23          	sb	x0,1752(x15) # 80003080 <conio>
    800049b0:	ffffe797          	auipc	x15,0xffffe
    800049b4:	6d078793          	addi	x15,x15,1744 # 80003080 <conio>
    800049b8:	4705                	c.li	x14,1
    800049ba:	00e78023          	sb	x14,0(x15)
    800049be:	4689                	c.li	x13,2
    800049c0:	00d78023          	sb	x13,0(x15)
    800049c4:	468d                	c.li	x13,3
    800049c6:	00d78023          	sb	x13,0(x15)
    800049ca:	4691                	c.li	x13,4
    800049cc:	00d78023          	sb	x13,0(x15)
    800049d0:	4695                	c.li	x13,5
    800049d2:	00d78023          	sb	x13,0(x15)
    800049d6:	4699                	c.li	x13,6
    800049d8:	00d78023          	sb	x13,0(x15)
    800049dc:	469d                	c.li	x13,7
    800049de:	00d78023          	sb	x13,0(x15)
    800049e2:	46a1                	c.li	x13,8
    800049e4:	00d78023          	sb	x13,0(x15)
    800049e8:	46a5                	c.li	x13,9
    800049ea:	00d78023          	sb	x13,0(x15)
    800049ee:	0010c033          	xor	x0,x1,x1
    800049f2:	ffffc797          	auipc	x15,0xffffc
    800049f6:	60e78793          	addi	x15,x15,1550 # 80001000 <tohost>
    800049fa:	e398                	c.sd	x14,0(x15)
    800049fc:	e398                	c.sd	x14,0(x15)
    800049fe:	a001                	c.j	800049fe <_init+0x2d6>
    80004a00:	a001                	c.j	80004a00 <_init+0x2d8>

0000000080004a02 <strlen>:
    80004a02:	00054783          	lbu	x15,0(x10)
    80004a06:	cb89                	c.beqz	x15,80004a18 <strlen+0x16>
    80004a08:	87aa                	c.mv	x15,x10
    80004a0a:	0017c703          	lbu	x14,1(x15)
    80004a0e:	0785                	c.addi	x15,1
    80004a10:	ff6d                	c.bnez	x14,80004a0a <strlen+0x8>
    80004a12:	40a78533          	sub	x10,x15,x10
    80004a16:	8082                	c.jr	x1
    80004a18:	4501                	c.li	x10,0
    80004a1a:	8082                	c.jr	x1

0000000080004a1c <strnlen>:
    80004a1c:	00b506b3          	add	x13,x10,x11
    80004a20:	87aa                	c.mv	x15,x10
    80004a22:	e589                	c.bnez	x11,80004a2c <strnlen+0x10>
    80004a24:	a821                	c.j	80004a3c <strnlen+0x20>
    80004a26:	0785                	c.addi	x15,1
    80004a28:	00f68863          	beq	x13,x15,80004a38 <strnlen+0x1c>
    80004a2c:	0007c703          	lbu	x14,0(x15)
    80004a30:	fb7d                	c.bnez	x14,80004a26 <strnlen+0xa>
    80004a32:	40a78533          	sub	x10,x15,x10
    80004a36:	8082                	c.jr	x1
    80004a38:	852e                	c.mv	x10,x11
    80004a3a:	8082                	c.jr	x1
    80004a3c:	4501                	c.li	x10,0
    80004a3e:	8082                	c.jr	x1

0000000080004a40 <strcmp>:
    80004a40:	00054783          	lbu	x15,0(x10)
    80004a44:	0505                	c.addi	x10,1
    80004a46:	0585                	c.addi	x11,1
    80004a48:	fff5c703          	lbu	x14,-1(x11)
    80004a4c:	c799                	c.beqz	x15,80004a5a <strcmp+0x1a>
    80004a4e:	fee789e3          	beq	x15,x14,80004a40 <strcmp>
    80004a52:	0007851b          	addiw	x10,x15,0
    80004a56:	9d19                	c.subw	x10,x14
    80004a58:	8082                	c.jr	x1
    80004a5a:	4501                	c.li	x10,0
    80004a5c:	bfed                	c.j	80004a56 <strcmp+0x16>

0000000080004a5e <strcpy>:
    80004a5e:	87aa                	c.mv	x15,x10
    80004a60:	0005c703          	lbu	x14,0(x11)
    80004a64:	0585                	c.addi	x11,1
    80004a66:	0785                	c.addi	x15,1
    80004a68:	fee78fa3          	sb	x14,-1(x15)
    80004a6c:	fb75                	c.bnez	x14,80004a60 <strcpy+0x2>
    80004a6e:	8082                	c.jr	x1
    80004a70:	f700                	c.sd	x8,40(x14)
    80004a72:	ffff                	.insn	2, 0xffff
    80004a74:	f6a0                	c.sd	x8,104(x13)
    80004a76:	ffff                	.insn	2, 0xffff
    80004a78:	f708                	c.sd	x10,40(x14)
    80004a7a:	ffff                	.insn	2, 0xffff
    80004a7c:	f6a0                	c.sd	x8,104(x13)
    80004a7e:	ffff                	.insn	2, 0xffff
    80004a80:	f6a0                	c.sd	x8,104(x13)
    80004a82:	ffff                	.insn	2, 0xffff
    80004a84:	f6a0                	c.sd	x8,104(x13)
    80004a86:	ffff                	.insn	2, 0xffff
    80004a88:	f6a0                	c.sd	x8,104(x13)
    80004a8a:	ffff                	.insn	2, 0xffff
    80004a8c:	f71a                	c.sdsp	x6,424(x2)
    80004a8e:	ffff                	.insn	2, 0xffff
    80004a90:	f6a0                	c.sd	x8,104(x13)
    80004a92:	ffff                	.insn	2, 0xffff
    80004a94:	f6a0                	c.sd	x8,104(x13)
    80004a96:	ffff                	.insn	2, 0xffff
    80004a98:	f688                	c.sd	x10,40(x13)
    80004a9a:	ffff                	.insn	2, 0xffff
    80004a9c:	f8ee                	c.sdsp	x27,112(x2)
    80004a9e:	ffff                	.insn	2, 0xffff
    80004aa0:	f6a0                	c.sd	x8,104(x13)
    80004aa2:	ffff                	.insn	2, 0xffff
    80004aa4:	f688                	c.sd	x10,40(x13)
    80004aa6:	ffff                	.insn	2, 0xffff
    80004aa8:	f6b4                	c.sd	x13,104(x13)
    80004aaa:	ffff                	.insn	2, 0xffff
    80004aac:	f6b4                	c.sd	x13,104(x13)
    80004aae:	ffff                	.insn	2, 0xffff
    80004ab0:	f6b4                	c.sd	x13,104(x13)
    80004ab2:	ffff                	.insn	2, 0xffff
    80004ab4:	f6b4                	c.sd	x13,104(x13)
    80004ab6:	ffff                	.insn	2, 0xffff
    80004ab8:	f6b4                	c.sd	x13,104(x13)
    80004aba:	ffff                	.insn	2, 0xffff
    80004abc:	f6b4                	c.sd	x13,104(x13)
    80004abe:	ffff                	.insn	2, 0xffff
    80004ac0:	f6b4                	c.sd	x13,104(x13)
    80004ac2:	ffff                	.insn	2, 0xffff
    80004ac4:	f6b4                	c.sd	x13,104(x13)
    80004ac6:	ffff                	.insn	2, 0xffff
    80004ac8:	f6b4                	c.sd	x13,104(x13)
    80004aca:	ffff                	.insn	2, 0xffff
    80004acc:	f6a0                	c.sd	x8,104(x13)
    80004ace:	ffff                	.insn	2, 0xffff
    80004ad0:	f6a0                	c.sd	x8,104(x13)
    80004ad2:	ffff                	.insn	2, 0xffff
    80004ad4:	f6a0                	c.sd	x8,104(x13)
    80004ad6:	ffff                	.insn	2, 0xffff
    80004ad8:	f6a0                	c.sd	x8,104(x13)
    80004ada:	ffff                	.insn	2, 0xffff
    80004adc:	f6a0                	c.sd	x8,104(x13)
    80004ade:	ffff                	.insn	2, 0xffff
    80004ae0:	f6a0                	c.sd	x8,104(x13)
    80004ae2:	ffff                	.insn	2, 0xffff
    80004ae4:	f6a0                	c.sd	x8,104(x13)
    80004ae6:	ffff                	.insn	2, 0xffff
    80004ae8:	f6a0                	c.sd	x8,104(x13)
    80004aea:	ffff                	.insn	2, 0xffff
    80004aec:	f6a0                	c.sd	x8,104(x13)
    80004aee:	ffff                	.insn	2, 0xffff
    80004af0:	f6a0                	c.sd	x8,104(x13)
    80004af2:	ffff                	.insn	2, 0xffff
    80004af4:	f6a0                	c.sd	x8,104(x13)
    80004af6:	ffff                	.insn	2, 0xffff
    80004af8:	f6a0                	c.sd	x8,104(x13)
    80004afa:	ffff                	.insn	2, 0xffff
    80004afc:	f6a0                	c.sd	x8,104(x13)
    80004afe:	ffff                	.insn	2, 0xffff
    80004b00:	f6a0                	c.sd	x8,104(x13)
    80004b02:	ffff                	.insn	2, 0xffff
    80004b04:	f6a0                	c.sd	x8,104(x13)
    80004b06:	ffff                	.insn	2, 0xffff
    80004b08:	f6a0                	c.sd	x8,104(x13)
    80004b0a:	ffff                	.insn	2, 0xffff
    80004b0c:	f6a0                	c.sd	x8,104(x13)
    80004b0e:	ffff                	.insn	2, 0xffff
    80004b10:	f6a0                	c.sd	x8,104(x13)
    80004b12:	ffff                	.insn	2, 0xffff
    80004b14:	f6a0                	c.sd	x8,104(x13)
    80004b16:	ffff                	.insn	2, 0xffff
    80004b18:	f6a0                	c.sd	x8,104(x13)
    80004b1a:	ffff                	.insn	2, 0xffff
    80004b1c:	f6a0                	c.sd	x8,104(x13)
    80004b1e:	ffff                	.insn	2, 0xffff
    80004b20:	f6a0                	c.sd	x8,104(x13)
    80004b22:	ffff                	.insn	2, 0xffff
    80004b24:	f6a0                	c.sd	x8,104(x13)
    80004b26:	ffff                	.insn	2, 0xffff
    80004b28:	f6a0                	c.sd	x8,104(x13)
    80004b2a:	ffff                	.insn	2, 0xffff
    80004b2c:	f6a0                	c.sd	x8,104(x13)
    80004b2e:	ffff                	.insn	2, 0xffff
    80004b30:	f6a0                	c.sd	x8,104(x13)
    80004b32:	ffff                	.insn	2, 0xffff
    80004b34:	f6a0                	c.sd	x8,104(x13)
    80004b36:	ffff                	.insn	2, 0xffff
    80004b38:	f6a0                	c.sd	x8,104(x13)
    80004b3a:	ffff                	.insn	2, 0xffff
    80004b3c:	f6a0                	c.sd	x8,104(x13)
    80004b3e:	ffff                	.insn	2, 0xffff
    80004b40:	f6a0                	c.sd	x8,104(x13)
    80004b42:	ffff                	.insn	2, 0xffff
    80004b44:	f6a0                	c.sd	x8,104(x13)
    80004b46:	ffff                	.insn	2, 0xffff
    80004b48:	f6a0                	c.sd	x8,104(x13)
    80004b4a:	ffff                	.insn	2, 0xffff
    80004b4c:	f6a0                	c.sd	x8,104(x13)
    80004b4e:	ffff                	.insn	2, 0xffff
    80004b50:	f6a0                	c.sd	x8,104(x13)
    80004b52:	ffff                	.insn	2, 0xffff
    80004b54:	f6a0                	c.sd	x8,104(x13)
    80004b56:	ffff                	.insn	2, 0xffff
    80004b58:	f6a0                	c.sd	x8,104(x13)
    80004b5a:	ffff                	.insn	2, 0xffff
    80004b5c:	f6a0                	c.sd	x8,104(x13)
    80004b5e:	ffff                	.insn	2, 0xffff
    80004b60:	f6a0                	c.sd	x8,104(x13)
    80004b62:	ffff                	.insn	2, 0xffff
    80004b64:	f6a0                	c.sd	x8,104(x13)
    80004b66:	ffff                	.insn	2, 0xffff
    80004b68:	f6a0                	c.sd	x8,104(x13)
    80004b6a:	ffff                	.insn	2, 0xffff
    80004b6c:	f6a0                	c.sd	x8,104(x13)
    80004b6e:	ffff                	.insn	2, 0xffff
    80004b70:	f8fc                	c.sd	x15,240(x9)
    80004b72:	ffff                	.insn	2, 0xffff
    80004b74:	f7c2                	c.sdsp	x16,488(x2)
    80004b76:	ffff                	.insn	2, 0xffff
    80004b78:	f6a0                	c.sd	x8,104(x13)
    80004b7a:	ffff                	.insn	2, 0xffff
    80004b7c:	f6a0                	c.sd	x8,104(x13)
    80004b7e:	ffff                	.insn	2, 0xffff
    80004b80:	f6a0                	c.sd	x8,104(x13)
    80004b82:	ffff                	.insn	2, 0xffff
    80004b84:	f6a0                	c.sd	x8,104(x13)
    80004b86:	ffff                	.insn	2, 0xffff
    80004b88:	f6a0                	c.sd	x8,104(x13)
    80004b8a:	ffff                	.insn	2, 0xffff
    80004b8c:	f6a0                	c.sd	x8,104(x13)
    80004b8e:	ffff                	.insn	2, 0xffff
    80004b90:	f6a0                	c.sd	x8,104(x13)
    80004b92:	ffff                	.insn	2, 0xffff
    80004b94:	f7de                	c.sdsp	x23,488(x2)
    80004b96:	ffff                	.insn	2, 0xffff
    80004b98:	f6a0                	c.sd	x8,104(x13)
    80004b9a:	ffff                	.insn	2, 0xffff
    80004b9c:	f6a0                	c.sd	x8,104(x13)
    80004b9e:	ffff                	.insn	2, 0xffff
    80004ba0:	f91a                	c.sdsp	x6,176(x2)
    80004ba2:	ffff                	.insn	2, 0xffff
    80004ba4:	f728                	c.sd	x10,104(x14)
    80004ba6:	ffff                	.insn	2, 0xffff
    80004ba8:	f6a0                	c.sd	x8,104(x13)
    80004baa:	ffff                	.insn	2, 0xffff
    80004bac:	f6a0                	c.sd	x8,104(x13)
    80004bae:	ffff                	.insn	2, 0xffff
    80004bb0:	f802                	c.sdsp	x0,48(x2)
    80004bb2:	ffff                	.insn	2, 0xffff
    80004bb4:	f6a0                	c.sd	x8,104(x13)
    80004bb6:	ffff                	.insn	2, 0xffff
    80004bb8:	f916                	c.sdsp	x5,176(x2)
    80004bba:	ffff                	.insn	2, 0xffff
    80004bbc:	f6a0                	c.sd	x8,104(x13)
    80004bbe:	ffff                	.insn	2, 0xffff
    80004bc0:	f6a0                	c.sd	x8,104(x13)
    80004bc2:	ffff                	.insn	2, 0xffff
    80004bc4:	f7e8                	c.sd	x10,232(x15)
    80004bc6:	ffff                	.insn	2, 0xffff
